target datalayout = "e-m:e-p270:32:32-p271:32:32-p272:64:64-i64:64-i128:128-f80:128-n8:16:32:64-S128"
target triple = "x86_64-pc-linux-gnu"

%"class.cv::tracking::impl::tld::TLDDetector" = type { %"class.std::vector", ptr, ptr, ptr, ptr, ptr, ptr, ptr, ptr, ptr, %"class.std::vector.0", %"class.std::vector.0", %"class.std::vector.5", %"class.std::vector.10", %"class.std::vector.10", %"class.std::vector.15", %"class.std::vector.15", %"class.std::vector.20", %"class.std::vector.20" }
%"class.std::vector" = type { %"struct.std::_Vector_base" }
%"struct.std::_Vector_base" = type { %"struct.std::_Vector_base<cv::tracking::impl::tld::TLDEnsembleClassifier, std::allocator<cv::tracking::impl::tld::TLDEnsembleClassifier>>::_Vector_impl" }
%"struct.std::_Vector_base<cv::tracking::impl::tld::TLDEnsembleClassifier, std::allocator<cv::tracking::impl::tld::TLDEnsembleClassifier>>::_Vector_impl" = type { %"struct.std::_Vector_base<cv::tracking::impl::tld::TLDEnsembleClassifier, std::allocator<cv::tracking::impl::tld::TLDEnsembleClassifier>>::_Vector_impl_data" }
%"struct.std::_Vector_base<cv::tracking::impl::tld::TLDEnsembleClassifier, std::allocator<cv::tracking::impl::tld::TLDEnsembleClassifier>>::_Vector_impl_data" = type { ptr, ptr, ptr }
%"class.std::vector.0" = type { %"struct.std::_Vector_base.1" }
%"struct.std::_Vector_base.1" = type { %"struct.std::_Vector_base<double, std::allocator<double>>::_Vector_impl" }
%"struct.std::_Vector_base<double, std::allocator<double>>::_Vector_impl" = type { %"struct.std::_Vector_base<double, std::allocator<double>>::_Vector_impl_data" }
%"struct.std::_Vector_base<double, std::allocator<double>>::_Vector_impl_data" = type { ptr, ptr, ptr }
%"class.std::vector.5" = type { %"struct.std::_Vector_base.6" }
%"struct.std::_Vector_base.6" = type { %"struct.std::_Vector_base<cv::Mat_<unsigned char>, std::allocator<cv::Mat_<unsigned char>>>::_Vector_impl" }
%"struct.std::_Vector_base<cv::Mat_<unsigned char>, std::allocator<cv::Mat_<unsigned char>>>::_Vector_impl" = type { %"struct.std::_Vector_base<cv::Mat_<unsigned char>, std::allocator<cv::Mat_<unsigned char>>>::_Vector_impl_data" }
%"struct.std::_Vector_base<cv::Mat_<unsigned char>, std::allocator<cv::Mat_<unsigned char>>>::_Vector_impl_data" = type { ptr, ptr, ptr }
%"class.std::vector.10" = type { %"struct.std::_Vector_base.11" }
%"struct.std::_Vector_base.11" = type { %"struct.std::_Vector_base<cv::Mat, std::allocator<cv::Mat>>::_Vector_impl" }
%"struct.std::_Vector_base<cv::Mat, std::allocator<cv::Mat>>::_Vector_impl" = type { %"struct.std::_Vector_base<cv::Mat, std::allocator<cv::Mat>>::_Vector_impl_data" }
%"struct.std::_Vector_base<cv::Mat, std::allocator<cv::Mat>>::_Vector_impl_data" = type { ptr, ptr, ptr }
%"class.std::vector.15" = type { %"struct.std::_Vector_base.16" }
%"struct.std::_Vector_base.16" = type { %"struct.std::_Vector_base<cv::Point_<int>, std::allocator<cv::Point_<int>>>::_Vector_impl" }
%"struct.std::_Vector_base<cv::Point_<int>, std::allocator<cv::Point_<int>>>::_Vector_impl" = type { %"struct.std::_Vector_base<cv::Point_<int>, std::allocator<cv::Point_<int>>>::_Vector_impl_data" }
%"struct.std::_Vector_base<cv::Point_<int>, std::allocator<cv::Point_<int>>>::_Vector_impl_data" = type { ptr, ptr, ptr }
%"class.std::vector.20" = type { %"struct.std::_Vector_base.21" }
%"struct.std::_Vector_base.21" = type { %"struct.std::_Vector_base<int, std::allocator<int>>::_Vector_impl" }
%"struct.std::_Vector_base<int, std::allocator<int>>::_Vector_impl" = type { %"struct.std::_Vector_base<int, std::allocator<int>>::_Vector_impl_data" }
%"struct.std::_Vector_base<int, std::allocator<int>>::_Vector_impl_data" = type { ptr, ptr, ptr }
%"class.cv::Mat_" = type { %"class.cv::Mat" }
%"class.cv::Mat" = type { i32, i32, i32, i32, ptr, ptr, ptr, ptr, ptr, ptr, %"struct.cv::MatSize", %"struct.cv::MatStep" }
%"struct.cv::MatSize" = type { ptr }
%"struct.cv::MatStep" = type { ptr, [2 x i64] }

; Function Attrs: inlinehint mustprogress nounwind uwtable
define linkonce_odr noundef nonnull align 8 dereferenceable(8) ptr @_ZSt3maxIdERKT_S2_S2_(ptr noundef nonnull align 8 dereferenceable(8) %0, ptr noundef nonnull align 8 dereferenceable(8) %1) #4 comdat {
  %3 = alloca ptr, align 8
  %4 = alloca ptr, align 8
  %5 = alloca ptr, align 8
  store ptr %0, ptr %4, align 8, !tbaa !72
  store ptr %1, ptr %5, align 8, !tbaa !72
  %6 = load ptr, ptr %4, align 8, !tbaa !72
  %7 = load double, ptr %6, align 8, !tbaa !27
  %8 = load ptr, ptr %5, align 8, !tbaa !72
  %9 = load double, ptr %8, align 8, !tbaa !27
  %10 = fcmp olt double %7, %9
  br i1 %10, label %11, label %13

11:                                               ; preds = %2
  %12 = load ptr, ptr %5, align 8, !tbaa !72
  store ptr %12, ptr %3, align 8
  br label %15

13:                                               ; preds = %2
  %14 = load ptr, ptr %4, align 8, !tbaa !72
  store ptr %14, ptr %3, align 8
  br label %15

15:                                               ; preds = %13, %11
  %16 = load ptr, ptr %3, align 8
  ret ptr %16
}

; Function Attrs: inlinehint mustprogress uwtable
define linkonce_odr hidden void @_ZN2cv4Mat_IhEC2Eii(ptr noundef nonnull align 8 dereferenceable(96) %0, i32 noundef %1, i32 noundef %2) unnamed_addr #8 comdat align 2 {
  %4 = alloca ptr, align 8
  %5 = alloca i32, align 4
  %6 = alloca i32, align 4
  store ptr %0, ptr %4, align 8, !tbaa !30
  store i32 %1, ptr %5, align 4, !tbaa !8
  store i32 %2, ptr %6, align 4, !tbaa !8
  %7 = load ptr, ptr %4, align 8
  %8 = load i32, ptr %5, align 4, !tbaa !8
  %9 = load i32, ptr %6, align 4, !tbaa !8
  call void @_ZN2cv3MatC2Eiii(ptr noundef nonnull align 8 dereferenceable(96) %7, i32 noundef %8, i32 noundef %9, i32 noundef 0)
  ret void
}

; Function Attrs: mustprogress uwtable
define hidden noundef double @_ZNK2cv8tracking4impl3tld11TLDDetector13computeSminusERKNS_4Mat_IhEE(ptr noundef nonnull align 8 dereferenceable(312) %0, ptr noundef nonnull align 8 dereferenceable(96) %1) #6 align 2 personality ptr @__gxx_personality_v0 {
  %3 = alloca ptr, align 8
  %4 = alloca ptr, align 8
  %5 = alloca double, align 8
  %6 = alloca %"class.cv::Mat_", align 8
  %7 = alloca i32, align 4
  %8 = alloca double, align 8
  %9 = alloca ptr, align 8
  %10 = alloca i32, align 4
  store ptr %0, ptr %3, align 8, !tbaa !13
  store ptr %1, ptr %4, align 8, !tbaa !30
  %11 = load ptr, ptr %3, align 8
  call void @llvm.lifetime.start.p0(i64 8, ptr %5) #3
  store double 0.000000e+00, ptr %5, align 8, !tbaa !27
  call void @llvm.lifetime.start.p0(i64 96, ptr %6) #3
  call void @_ZN2cv4Mat_IhEC2Eii(ptr noundef nonnull align 8 dereferenceable(96) %6, i32 noundef 15, i32 noundef 15)
  call void @llvm.lifetime.start.p0(i64 4, ptr %7) #3
  store i32 0, ptr %7, align 4, !tbaa !8
  br label %12

12:                                               ; preds = %37, %2
  %13 = load i32, ptr %7, align 4, !tbaa !8
  %14 = getelementptr inbounds nuw %"class.cv::tracking::impl::tld::TLDDetector", ptr %11, i32 0, i32 4
  %15 = load ptr, ptr %14, align 8, !tbaa !32
  %16 = load i32, ptr %15, align 4, !tbaa !8
  %17 = icmp slt i32 %13, %16
  br i1 %17, label %19, label %18

18:                                               ; preds = %12
  call void @llvm.lifetime.end.p0(i64 4, ptr %7) #3
  br label %44

19:                                               ; preds = %12
  %20 = getelementptr inbounds nuw %"class.cv::tracking::impl::tld::TLDDetector", ptr %11, i32 0, i32 2
  %21 = load ptr, ptr %20, align 8, !tbaa !63
  %22 = getelementptr inbounds nuw %"class.cv::Mat", ptr %21, i32 0, i32 4
  %23 = load ptr, ptr %22, align 8, !tbaa !64
  %24 = load i32, ptr %7, align 4, !tbaa !8
  %25 = mul nsw i32 %24, 225
  %26 = sext i32 %25 to i64
  %27 = getelementptr inbounds i8, ptr %23, i64 %26
  %28 = getelementptr inbounds nuw %"class.cv::Mat", ptr %6, i32 0, i32 4
  store ptr %27, ptr %28, align 8, !tbaa !64
  call void @llvm.lifetime.start.p0(i64 8, ptr %8) #3
  %29 = load ptr, ptr %4, align 8, !tbaa !30
  %30 = invoke noundef double @_ZN2cv17tracking_internal10computeNCCERKNS_3MatES3_(ptr noundef nonnull align 8 dereferenceable(96) %6, ptr noundef nonnull align 8 dereferenceable(96) %29)
          to label %31 unwind label %40

31:                                               ; preds = %19
  %32 = fadd double %30, 1.000000e+00
  %33 = fmul double 5.000000e-01, %32
  store double %33, ptr %8, align 8, !tbaa !27
  %34 = invoke noundef nonnull align 8 dereferenceable(8) ptr @_ZSt3maxIdERKT_S2_S2_(ptr noundef nonnull align 8 dereferenceable(8) %5, ptr noundef nonnull align 8 dereferenceable(8) %8)
          to label %35 unwind label %40

35:                                               ; preds = %31
  %36 = load double, ptr %34, align 8, !tbaa !27
  store double %36, ptr %5, align 8, !tbaa !27
  call void @llvm.lifetime.end.p0(i64 8, ptr %8) #3
  br label %37

37:                                               ; preds = %35
  %38 = load i32, ptr %7, align 4, !tbaa !8
  %39 = add nsw i32 %38, 1
  store i32 %39, ptr %7, align 4, !tbaa !8
  br label %12, !llvm.loop !71

40:                                               ; preds = %31, %19
  %41 = landingpad { ptr, i32 }
          cleanup
  %42 = extractvalue { ptr, i32 } %41, 0
  store ptr %42, ptr %9, align 8
  %43 = extractvalue { ptr, i32 } %41, 1
  store i32 %43, ptr %10, align 4
  call void @llvm.lifetime.end.p0(i64 8, ptr %8) #3
  call void @llvm.lifetime.end.p0(i64 4, ptr %7) #3
  call void @_ZN2cv3MatD2Ev(ptr noundef nonnull align 8 dereferenceable(96) %6) #3
  call void @llvm.lifetime.end.p0(i64 96, ptr %6) #3
  call void @llvm.lifetime.end.p0(i64 8, ptr %5) #3
  br label %46

44:                                               ; preds = %18
  %45 = load double, ptr %5, align 8, !tbaa !27
  call void @_ZN2cv3MatD2Ev(ptr noundef nonnull align 8 dereferenceable(96) %6) #3
  call void @llvm.lifetime.end.p0(i64 96, ptr %6) #3
  call void @llvm.lifetime.end.p0(i64 8, ptr %5) #3
  ret double %45

46:                                               ; preds = %40
  %47 = load ptr, ptr %9, align 8
  %48 = load i32, ptr %10, align 4
  %49 = insertvalue { ptr, i32 } poison, ptr %47, 0
  %50 = insertvalue { ptr, i32 } %49, i32 %48, 1
  resume { ptr, i32 } %50
}