; Function Attrs: mustprogress uwtable
define hidden noundef double @_ZNK2cv8tracking4impl3tld11TLDDetector13computeSminusERKNS_4Mat_IhEE(ptr noundef nonnull readonly align 8 captures(none) dereferenceable(312) %0, ptr noundef nonnull align 8 dereferenceable(96) %1) local_unnamed_addr #4 align 2 personality ptr @__gxx_personality_v0 {
  %3 = alloca %"class.cv::Mat_", align 8
  call void @llvm.lifetime.start.p0(i64 96, ptr nonnull %3) #22
  call void @_ZN2cv3MatC2Eiii(ptr noundef nonnull align 8 dereferenceable(96) %3, i32 noundef 15, i32 noundef 15, i32 noundef 0)
  %4 = getelementptr inbounds nuw i8, ptr %0, i64 48
  %5 = load ptr, ptr %4, align 8, !tbaa !13
  %6 = load i32, ptr %5, align 4, !tbaa !45
  %7 = icmp sgt i32 %6, 0
  br i1 %7, label %.lr.ph, label %._crit_edge

.lr.ph:                                           ; preds = %2
  %8 = getelementptr inbounds nuw i8, ptr %0, i64 32
  %9 = getelementptr inbounds nuw i8, ptr %3, i64 16
  br label %10

._crit_edge:                                      ; preds = %17, %2
  %.07.lcssa = phi double [ 0.000000e+00, %2 ], [ %.sroa.speculated, %17 ]
  call void @_ZN2cv3MatD2Ev(ptr noundef nonnull align 8 dereferenceable(96) %3) #22
  call void @llvm.lifetime.end.p0(i64 96, ptr nonnull %3) #22
  ret double %.07.lcssa

10:                                               ; preds = %.lr.ph, %17
  %indvars.iv = phi i64 [ 0, %.lr.ph ], [ %indvars.iv.next, %17 ]
  %.079 = phi double [ 0.000000e+00, %.lr.ph ], [ %.sroa.speculated, %17 ]
  %11 = load ptr, ptr %8, align 8, !tbaa !47
  %12 = getelementptr inbounds nuw i8, ptr %11, i64 16
  %13 = load ptr, ptr %12, align 8, !tbaa !48
  %14 = mul nuw nsw i64 %indvars.iv, 225
  %15 = getelementptr inbounds nuw i8, ptr %13, i64 %14
  store ptr %15, ptr %9, align 8, !tbaa !48
  %16 = invoke noundef double @_ZN2cv17tracking_internal10computeNCCERKNS_3MatES3_(ptr noundef nonnull align 8 dereferenceable(96) %3, ptr noundef nonnull align 8 dereferenceable(96) %1)
          to label %17 unwind label %25

17:                                               ; preds = %10
  %18 = fadd double %16, 1.000000e+00
  %19 = fmul double %18, 5.000000e-01
  %20 = fcmp olt double %.079, %19
  %.sroa.speculated = select i1 %20, double %19, double %.079
  %indvars.iv.next = add nuw nsw i64 %indvars.iv, 1
  %21 = load ptr, ptr %4, align 8, !tbaa !13
  %22 = load i32, ptr %21, align 4, !tbaa !45
  %23 = sext i32 %22 to i64
  %24 = icmp slt i64 %indvars.iv.next, %23
  br i1 %24, label %10, label %._crit_edge, !llvm.loop !56

25:                                               ; preds = %10
  %26 = landingpad { ptr, i32 }
          cleanup
  call void @_ZN2cv3MatD2Ev(ptr noundef nonnull align 8 dereferenceable(96) %3) #22
  call void @llvm.lifetime.end.p0(i64 96, ptr nonnull %3) #22
  resume { ptr, i32 } %26
}